target datalayout = "e-m:e-p270:32:32-p271:32:32-p272:64:64-i64:64-i128:128-f80:128-n8:16:32:64-S128"
target triple = "x86_64-pc-linux-gnu"

; Function Attrs: nounwind uwtable
define internal void @ps_hybrid_analysis_c(ptr noalias noundef %0, ptr noundef %1, ptr noundef %2, i64 noundef %3, i32 noundef %4) #1 {
  %6 = alloca ptr, align 8
  %7 = alloca ptr, align 8
  %8 = alloca ptr, align 8
  %9 = alloca i64, align 8
  %10 = alloca i32, align 4
  %11 = alloca [6 x float], align 16
  %12 = alloca [6 x float], align 16
  %13 = alloca [6 x float], align 16
  %14 = alloca [6 x float], align 16
  %15 = alloca i32, align 4
  %16 = alloca i32, align 4
  %17 = alloca i32, align 4
  %18 = alloca float, align 4
  %19 = alloca float, align 4
  %20 = alloca i32, align 4
  store ptr %0, ptr %6, align 8, !tbaa !17
  store ptr %1, ptr %7, align 8, !tbaa !17
  store ptr %2, ptr %8, align 8, !tbaa !17
  store i64 %3, ptr %9, align 8, !tbaa !26
  store i32 %4, ptr %10, align 4, !tbaa !19
  call void @llvm.lifetime.start.p0(i64 24, ptr %11) #4
  call void @llvm.lifetime.start.p0(i64 24, ptr %12) #4
  call void @llvm.lifetime.start.p0(i64 24, ptr %13) #4
  call void @llvm.lifetime.start.p0(i64 24, ptr %14) #4
  call void @llvm.lifetime.start.p0(i64 4, ptr %15) #4
  store i32 0, ptr %15, align 4, !tbaa !19
  br label %21

21:                                               ; preds = %94, %5
  %22 = load i32, ptr %15, align 4, !tbaa !19
  %23 = icmp slt i32 %22, 6
  br i1 %23, label %25, label %24

24:                                               ; preds = %21
  call void @llvm.lifetime.end.p0(i64 4, ptr %15) #4
  br label %97

25:                                               ; preds = %21
  %26 = load ptr, ptr %7, align 8, !tbaa !17
  %27 = load i32, ptr %15, align 4, !tbaa !19
  %28 = sext i32 %27 to i64
  %29 = getelementptr inbounds [2 x float], ptr %26, i64 %28
  %30 = getelementptr inbounds [2 x float], ptr %29, i64 0, i64 0
  %31 = load float, ptr %30, align 4, !tbaa !21
  %32 = load ptr, ptr %7, align 8, !tbaa !17
  %33 = load i32, ptr %15, align 4, !tbaa !19
  %34 = sub nsw i32 12, %33
  %35 = sext i32 %34 to i64
  %36 = getelementptr inbounds [2 x float], ptr %32, i64 %35
  %37 = getelementptr inbounds [2 x float], ptr %36, i64 0, i64 0
  %38 = load float, ptr %37, align 4, !tbaa !21
  %39 = fadd nsz float %31, %38
  %40 = load i32, ptr %15, align 4, !tbaa !19
  %41 = sext i32 %40 to i64
  %42 = getelementptr inbounds [6 x float], ptr %11, i64 0, i64 %41
  store float %39, ptr %42, align 4, !tbaa !21
  %43 = load ptr, ptr %7, align 8, !tbaa !17
  %44 = load i32, ptr %15, align 4, !tbaa !19
  %45 = sext i32 %44 to i64
  %46 = getelementptr inbounds [2 x float], ptr %43, i64 %45
  %47 = getelementptr inbounds [2 x float], ptr %46, i64 0, i64 1
  %48 = load float, ptr %47, align 4, !tbaa !21
  %49 = load ptr, ptr %7, align 8, !tbaa !17
  %50 = load i32, ptr %15, align 4, !tbaa !19
  %51 = sub nsw i32 12, %50
  %52 = sext i32 %51 to i64
  %53 = getelementptr inbounds [2 x float], ptr %49, i64 %52
  %54 = getelementptr inbounds [2 x float], ptr %53, i64 0, i64 1
  %55 = load float, ptr %54, align 4, !tbaa !21
  %56 = fsub nsz float %48, %55
  %57 = load i32, ptr %15, align 4, !tbaa !19
  %58 = sext i32 %57 to i64
  %59 = getelementptr inbounds [6 x float], ptr %12, i64 0, i64 %58
  store float %56, ptr %59, align 4, !tbaa !21
  %60 = load ptr, ptr %7, align 8, !tbaa !17
  %61 = load i32, ptr %15, align 4, !tbaa !19
  %62 = sext i32 %61 to i64
  %63 = getelementptr inbounds [2 x float], ptr %60, i64 %62
  %64 = getelementptr inbounds [2 x float], ptr %63, i64 0, i64 1
  %65 = load float, ptr %64, align 4, !tbaa !21
  %66 = load ptr, ptr %7, align 8, !tbaa !17
  %67 = load i32, ptr %15, align 4, !tbaa !19
  %68 = sub nsw i32 12, %67
  %69 = sext i32 %68 to i64
  %70 = getelementptr inbounds [2 x float], ptr %66, i64 %69
  %71 = getelementptr inbounds [2 x float], ptr %70, i64 0, i64 1
  %72 = load float, ptr %71, align 4, !tbaa !21
  %73 = fadd nsz float %65, %72
  %74 = load i32, ptr %15, align 4, !tbaa !19
  %75 = sext i32 %74 to i64
  %76 = getelementptr inbounds [6 x float], ptr %13, i64 0, i64 %75
  store float %73, ptr %76, align 4, !tbaa !21
  %77 = load ptr, ptr %7, align 8, !tbaa !17
  %78 = load i32, ptr %15, align 4, !tbaa !19
  %79 = sext i32 %78 to i64
  %80 = getelementptr inbounds [2 x float], ptr %77, i64 %79
  %81 = getelementptr inbounds [2 x float], ptr %80, i64 0, i64 0
  %82 = load float, ptr %81, align 4, !tbaa !21
  %83 = load ptr, ptr %7, align 8, !tbaa !17
  %84 = load i32, ptr %15, align 4, !tbaa !19
  %85 = sub nsw i32 12, %84
  %86 = sext i32 %85 to i64
  %87 = getelementptr inbounds [2 x float], ptr %83, i64 %86
  %88 = getelementptr inbounds [2 x float], ptr %87, i64 0, i64 0
  %89 = load float, ptr %88, align 4, !tbaa !21
  %90 = fsub nsz float %82, %89
  %91 = load i32, ptr %15, align 4, !tbaa !19
  %92 = sext i32 %91 to i64
  %93 = getelementptr inbounds [6 x float], ptr %14, i64 0, i64 %92
  store float %90, ptr %93, align 4, !tbaa !21
  br label %94

94:                                               ; preds = %25
  %95 = load i32, ptr %15, align 4, !tbaa !19
  %96 = add nsw i32 %95, 1
  store i32 %96, ptr %15, align 4, !tbaa !19
  br label %21, !llvm.loop !28

97:                                               ; preds = %24
  call void @llvm.lifetime.start.p0(i64 4, ptr %16) #4
  store i32 0, ptr %16, align 4, !tbaa !19
  br label %98

98:                                               ; preds = %214, %97
  %99 = load i32, ptr %16, align 4, !tbaa !19
  %100 = load i32, ptr %10, align 4, !tbaa !19
  %101 = icmp slt i32 %99, %100
  br i1 %101, label %103, label %102

102:                                              ; preds = %98
  store i32 5, ptr %17, align 4
  call void @llvm.lifetime.end.p0(i64 4, ptr %16) #4
  br label %217

103:                                              ; preds = %98
  call void @llvm.lifetime.start.p0(i64 4, ptr %18) #4
  %104 = load ptr, ptr %8, align 8, !tbaa !17
  %105 = load i32, ptr %16, align 4, !tbaa !19
  %106 = sext i32 %105 to i64
  %107 = getelementptr inbounds [8 x [2 x float]], ptr %104, i64 %106
  %108 = getelementptr inbounds [8 x [2 x float]], ptr %107, i64 0, i64 6
  %109 = getelementptr inbounds [2 x float], ptr %108, i64 0, i64 0
  %110 = load float, ptr %109, align 4, !tbaa !21
  %111 = load ptr, ptr %7, align 8, !tbaa !17
  %112 = getelementptr inbounds [2 x float], ptr %111, i64 6
  %113 = getelementptr inbounds [2 x float], ptr %112, i64 0, i64 0
  %114 = load float, ptr %113, align 4, !tbaa !21
  %115 = fmul nsz float %110, %114
  store float %115, ptr %18, align 4, !tbaa !21
  call void @llvm.lifetime.start.p0(i64 4, ptr %19) #4
  %116 = load ptr, ptr %8, align 8, !tbaa !17
  %117 = load i32, ptr %16, align 4, !tbaa !19
  %118 = sext i32 %117 to i64
  %119 = getelementptr inbounds [8 x [2 x float]], ptr %116, i64 %118
  %120 = getelementptr inbounds [8 x [2 x float]], ptr %119, i64 0, i64 6
  %121 = getelementptr inbounds [2 x float], ptr %120, i64 0, i64 0
  %122 = load float, ptr %121, align 4, !tbaa !21
  %123 = load ptr, ptr %7, align 8, !tbaa !17
  %124 = getelementptr inbounds [2 x float], ptr %123, i64 6
  %125 = getelementptr inbounds [2 x float], ptr %124, i64 0, i64 1
  %126 = load float, ptr %125, align 4, !tbaa !21
  %127 = fmul nsz float %122, %126
  store float %127, ptr %19, align 4, !tbaa !21
  call void @llvm.lifetime.start.p0(i64 4, ptr %20) #4
  store i32 0, ptr %20, align 4, !tbaa !19
  br label %128

128:                                              ; preds = %194, %103
  %129 = load i32, ptr %20, align 4, !tbaa !19
  %130 = icmp slt i32 %129, 6
  br i1 %130, label %132, label %131

131:                                              ; preds = %128
  store i32 8, ptr %17, align 4
  call void @llvm.lifetime.end.p0(i64 4, ptr %20) #4
  br label %197

132:                                              ; preds = %128
  %133 = load ptr, ptr %8, align 8, !tbaa !17
  %134 = load i32, ptr %16, align 4, !tbaa !19
  %135 = sext i32 %134 to i64
  %136 = getelementptr inbounds [8 x [2 x float]], ptr %133, i64 %135
  %137 = load i32, ptr %20, align 4, !tbaa !19
  %138 = sext i32 %137 to i64
  %139 = getelementptr inbounds [8 x [2 x float]], ptr %136, i64 0, i64 %138
  %140 = getelementptr inbounds [2 x float], ptr %139, i64 0, i64 0
  %141 = load float, ptr %140, align 4, !tbaa !21
  %142 = load i32, ptr %20, align 4, !tbaa !19
  %143 = sext i32 %142 to i64
  %144 = getelementptr inbounds [6 x float], ptr %11, i64 0, i64 %143
  %145 = load float, ptr %144, align 4, !tbaa !21
  %146 = load ptr, ptr %8, align 8, !tbaa !17
  %147 = load i32, ptr %16, align 4, !tbaa !19
  %148 = sext i32 %147 to i64
  %149 = getelementptr inbounds [8 x [2 x float]], ptr %146, i64 %148
  %150 = load i32, ptr %20, align 4, !tbaa !19
  %151 = sext i32 %150 to i64
  %152 = getelementptr inbounds [8 x [2 x float]], ptr %149, i64 0, i64 %151
  %153 = getelementptr inbounds [2 x float], ptr %152, i64 0, i64 1
  %154 = load float, ptr %153, align 4, !tbaa !21
  %155 = load i32, ptr %20, align 4, !tbaa !19
  %156 = sext i32 %155 to i64
  %157 = getelementptr inbounds [6 x float], ptr %12, i64 0, i64 %156
  %158 = load float, ptr %157, align 4, !tbaa !21
  %159 = fmul nsz float %154, %158
  %160 = fneg nsz float %159
  %161 = call nsz float @llvm.fmuladd.f32(float %141, float %145, float %160)
  %162 = load float, ptr %18, align 4, !tbaa !21
  %163 = fadd nsz float %162, %161
  store float %163, ptr %18, align 4, !tbaa !21
  %164 = load ptr, ptr %8, align 8, !tbaa !17
  %165 = load i32, ptr %16, align 4, !tbaa !19
  %166 = sext i32 %165 to i64
  %167 = getelementptr inbounds [8 x [2 x float]], ptr %164, i64 %166
  %168 = load i32, ptr %20, align 4, !tbaa !19
  %169 = sext i32 %168 to i64
  %170 = getelementptr inbounds [8 x [2 x float]], ptr %167, i64 0, i64 %169
  %171 = getelementptr inbounds [2 x float], ptr %170, i64 0, i64 0
  %172 = load float, ptr %171, align 4, !tbaa !21
  %173 = load i32, ptr %20, align 4, !tbaa !19
  %174 = sext i32 %173 to i64
  %175 = getelementptr inbounds [6 x float], ptr %13, i64 0, i64 %174
  %176 = load float, ptr %175, align 4, !tbaa !21
  %177 = load ptr, ptr %8, align 8, !tbaa !17
  %178 = load i32, ptr %16, align 4, !tbaa !19
  %179 = sext i32 %178 to i64
  %180 = getelementptr inbounds [8 x [2 x float]], ptr %177, i64 %179
  %181 = load i32, ptr %20, align 4, !tbaa !19
  %182 = sext i32 %181 to i64
  %183 = getelementptr inbounds [8 x [2 x float]], ptr %180, i64 0, i64 %182
  %184 = getelementptr inbounds [2 x float], ptr %183, i64 0, i64 1
  %185 = load float, ptr %184, align 4, !tbaa !21
  %186 = load i32, ptr %20, align 4, !tbaa !19
  %187 = sext i32 %186 to i64
  %188 = getelementptr inbounds [6 x float], ptr %14, i64 0, i64 %187
  %189 = load float, ptr %188, align 4, !tbaa !21
  %190 = fmul nsz float %185, %189
  %191 = call nsz float @llvm.fmuladd.f32(float %172, float %176, float %190)
  %192 = load float, ptr %19, align 4, !tbaa !21
  %193 = fadd nsz float %192, %191
  store float %193, ptr %19, align 4, !tbaa !21
  br label %194

194:                                              ; preds = %132
  %195 = load i32, ptr %20, align 4, !tbaa !19
  %196 = add nsw i32 %195, 1
  store i32 %196, ptr %20, align 4, !tbaa !19
  br label %128, !llvm.loop !29

197:                                              ; preds = %131
  %198 = load float, ptr %18, align 4, !tbaa !21
  %199 = load ptr, ptr %6, align 8, !tbaa !17
  %200 = load i32, ptr %16, align 4, !tbaa !19
  %201 = sext i32 %200 to i64
  %202 = load i64, ptr %9, align 8, !tbaa !26
  %203 = mul nsw i64 %201, %202
  %204 = getelementptr inbounds [2 x float], ptr %199, i64 %203
  %205 = getelementptr inbounds [2 x float], ptr %204, i64 0, i64 0
  store float %198, ptr %205, align 4, !tbaa !21
  %206 = load float, ptr %19, align 4, !tbaa !21
  %207 = load ptr, ptr %6, align 8, !tbaa !17
  %208 = load i32, ptr %16, align 4, !tbaa !19
  %209 = sext i32 %208 to i64
  %210 = load i64, ptr %9, align 8, !tbaa !26
  %211 = mul nsw i64 %209, %210
  %212 = getelementptr inbounds [2 x float], ptr %207, i64 %211
  %213 = getelementptr inbounds [2 x float], ptr %212, i64 0, i64 1
  store float %206, ptr %213, align 4, !tbaa !21
  call void @llvm.lifetime.end.p0(i64 4, ptr %19) #4
  call void @llvm.lifetime.end.p0(i64 4, ptr %18) #4
  br label %214

214:                                              ; preds = %197
  %215 = load i32, ptr %16, align 4, !tbaa !19
  %216 = add nsw i32 %215, 1
  store i32 %216, ptr %16, align 4, !tbaa !19
  br label %98, !llvm.loop !30

217:                                              ; preds = %102
  call void @llvm.lifetime.end.p0(i64 24, ptr %14) #4
  call void @llvm.lifetime.end.p0(i64 24, ptr %13) #4
  call void @llvm.lifetime.end.p0(i64 24, ptr %12) #4
  call void @llvm.lifetime.end.p0(i64 24, ptr %11) #4
  ret void
}