; Function Attrs: nofree norecurse nosync nounwind memory(argmem: readwrite) uwtable
define internal void @ps_hybrid_analysis_c(ptr noalias noundef writeonly captures(none) %0, ptr noundef readonly captures(none) %1, ptr noundef readonly captures(none) %2, i64 noundef %3, i32 noundef %4) #1 {
  %6 = alloca [6 x float], align 16
  %7 = alloca [6 x float], align 16
  %8 = alloca [6 x float], align 16
  %9 = alloca [6 x float], align 16
  call void @llvm.lifetime.start.p0(i64 24, ptr nonnull %6) #4
  call void @llvm.lifetime.start.p0(i64 24, ptr nonnull %7) #4
  call void @llvm.lifetime.start.p0(i64 24, ptr nonnull %8) #4
  call void @llvm.lifetime.start.p0(i64 24, ptr nonnull %9) #4
  br label %15

.preheader:                                       ; preds = %15
  %10 = icmp sgt i32 %4, 0
  br i1 %10, label %.lr.ph, label %._crit_edge

.lr.ph:                                           ; preds = %.preheader
  %11 = getelementptr inbounds nuw i8, ptr %1, i64 48
  %12 = load float, ptr %11, align 4, !tbaa !15
  %13 = getelementptr inbounds nuw i8, ptr %1, i64 52
  %14 = load float, ptr %13, align 4, !tbaa !15
  %wide.trip.count = zext nneg i32 %4 to i64
  br label %33

15:                                               ; preds = %5, %15
  %indvars.iv = phi i64 [ 0, %5 ], [ %indvars.iv.next, %15 ]
  %16 = getelementptr inbounds nuw [2 x float], ptr %1, i64 %indvars.iv
  %17 = load float, ptr %16, align 4, !tbaa !15
  %18 = sub nuw nsw i64 12, %indvars.iv
  %19 = getelementptr inbounds nuw [2 x float], ptr %1, i64 %18
  %20 = load float, ptr %19, align 4, !tbaa !15
  %21 = fadd nsz float %17, %20
  %22 = getelementptr inbounds nuw [6 x float], ptr %6, i64 0, i64 %indvars.iv
  store float %21, ptr %22, align 4, !tbaa !15
  %23 = getelementptr inbounds nuw i8, ptr %16, i64 4
  %24 = load float, ptr %23, align 4, !tbaa !15
  %25 = getelementptr inbounds nuw i8, ptr %19, i64 4
  %26 = load float, ptr %25, align 4, !tbaa !15
  %27 = fsub nsz float %24, %26
  %28 = getelementptr inbounds nuw [6 x float], ptr %7, i64 0, i64 %indvars.iv
  store float %27, ptr %28, align 4, !tbaa !15
  %29 = fadd nsz float %24, %26
  %30 = getelementptr inbounds nuw [6 x float], ptr %8, i64 0, i64 %indvars.iv
  store float %29, ptr %30, align 4, !tbaa !15
  %31 = fsub nsz float %17, %20
  %32 = getelementptr inbounds nuw [6 x float], ptr %9, i64 0, i64 %indvars.iv
  store float %31, ptr %32, align 4, !tbaa !15
  %indvars.iv.next = add nuw nsw i64 %indvars.iv, 1
  %exitcond.not = icmp eq i64 %indvars.iv.next, 6
  br i1 %exitcond.not, label %.preheader, label %15, !llvm.loop !20

._crit_edge:                                      ; preds = %38, %.preheader
  call void @llvm.lifetime.end.p0(i64 24, ptr nonnull %9) #4
  call void @llvm.lifetime.end.p0(i64 24, ptr nonnull %8) #4
  call void @llvm.lifetime.end.p0(i64 24, ptr nonnull %7) #4
  call void @llvm.lifetime.end.p0(i64 24, ptr nonnull %6) #4
  ret void

33:                                               ; preds = %.lr.ph, %38
  %indvars.iv73 = phi i64 [ 0, %.lr.ph ], [ %indvars.iv.next74, %38 ]
  %34 = getelementptr inbounds nuw [8 x [2 x float]], ptr %2, i64 %indvars.iv73, i64 6
  %35 = load float, ptr %34, align 4, !tbaa !15
  %36 = fmul nsz float %35, %12
  %37 = fmul nsz float %35, %14
  br label %42

38:                                               ; preds = %42
  %39 = mul nsw i64 %3, %indvars.iv73
  %40 = getelementptr inbounds [2 x float], ptr %0, i64 %39
  store float %54, ptr %40, align 4, !tbaa !15
  %41 = getelementptr inbounds nuw i8, ptr %40, i64 4
  store float %61, ptr %41, align 4, !tbaa !15
  %indvars.iv.next74 = add nuw nsw i64 %indvars.iv73, 1
  %exitcond76.not = icmp eq i64 %indvars.iv.next74, %wide.trip.count
  br i1 %exitcond76.not, label %._crit_edge, label %33, !llvm.loop !21

42:                                               ; preds = %33, %42
  %indvars.iv69 = phi i64 [ 0, %33 ], [ %indvars.iv.next70, %42 ]
  %.05864 = phi float [ %37, %33 ], [ %61, %42 ]
  %.05963 = phi float [ %36, %33 ], [ %54, %42 ]
  %43 = getelementptr inbounds nuw [8 x [2 x float]], ptr %2, i64 %indvars.iv73, i64 %indvars.iv69
  %44 = load float, ptr %43, align 4, !tbaa !15
  %45 = getelementptr inbounds nuw [6 x float], ptr %6, i64 0, i64 %indvars.iv69
  %46 = load float, ptr %45, align 4, !tbaa !15
  %47 = getelementptr inbounds nuw i8, ptr %43, i64 4
  %48 = load float, ptr %47, align 4, !tbaa !15
  %49 = getelementptr inbounds nuw [6 x float], ptr %7, i64 0, i64 %indvars.iv69
  %50 = load float, ptr %49, align 4, !tbaa !15
  %51 = fneg nsz float %50
  %52 = fmul nsz float %48, %51
  %53 = tail call nsz float @llvm.fmuladd.f32(float %44, float %46, float %52)
  %54 = fadd nsz float %.05963, %53
  %55 = getelementptr inbounds nuw [6 x float], ptr %8, i64 0, i64 %indvars.iv69
  %56 = load float, ptr %55, align 4, !tbaa !15
  %57 = getelementptr inbounds nuw [6 x float], ptr %9, i64 0, i64 %indvars.iv69
  %58 = load float, ptr %57, align 4, !tbaa !15
  %59 = fmul nsz float %48, %58
  %60 = tail call nsz float @llvm.fmuladd.f32(float %44, float %56, float %59)
  %61 = fadd nsz float %.05864, %60
  %indvars.iv.next70 = add nuw nsw i64 %indvars.iv69, 1
  %exitcond72.not = icmp eq i64 %indvars.iv.next70, 6
  br i1 %exitcond72.not, label %38, label %42, !llvm.loop !22
}